; Function Attrs: nounwind uwtable
define ptr @l_Lean_Meta_mkIffOfEq(ptr noundef %0, ptr noundef %1, ptr noundef %2, ptr noundef %3, ptr noundef %4, ptr noundef %5) local_unnamed_addr #0 {
  %7 = load ptr, ptr @l_Lean_Meta_mkPropExt___closed__2, align 8, !tbaa !10
  %8 = tail call zeroext i8 @l_Lean_Expr_isAppOfArity(ptr noundef %0, ptr noundef %7, ptr noundef nonnull inttoptr (i64 7 to ptr)) #5
  %9 = icmp eq i8 %8, 0
  br i1 %9, label %10, label %20

10:                                               ; preds = %6
  tail call void @lean_inc_heartbeat() #5
  %11 = tail call noalias ptr @mi_malloc_small(i64 noundef 24) #5
  %12 = icmp eq ptr %11, null
  br i1 %12, label %13, label %lean_alloc_ctor.exit

13:                                               ; preds = %10
  tail call void @lean_internal_panic_out_of_memory() #6
  unreachable

lean_alloc_ctor.exit:                             ; preds = %10
  %14 = getelementptr inbounds nuw i8, ptr %11, i64 4
  store i32 1, ptr %11, align 4, !tbaa !4
  store i32 16908312, ptr %14, align 4
  %15 = getelementptr inbounds nuw i8, ptr %11, i64 8
  store ptr %0, ptr %15, align 8, !tbaa !10
  %16 = getelementptr inbounds nuw i8, ptr %11, i64 16
  store ptr inttoptr (i64 1 to ptr), ptr %16, align 8, !tbaa !10
  %17 = tail call ptr @lean_array_mk(ptr noundef nonnull %11) #5
  %18 = load ptr, ptr @l_Lean_Meta_mkIffOfEq___closed__3, align 8, !tbaa !10
  %19 = tail call ptr @l_Lean_Meta_mkAppM(ptr noundef %18, ptr noundef %17, ptr noundef %1, ptr noundef %2, ptr noundef %3, ptr noundef %4, ptr noundef %5)
  br label %73

20:                                               ; preds = %6
  %21 = ptrtoint ptr %4 to i64
  %22 = and i64 %21, 1
  %.not = icmp eq i64 %22, 0
  br i1 %.not, label %23, label %lean_dec.exit31

23:                                               ; preds = %20
  %24 = load i32, ptr %4, align 4, !tbaa !4
  %25 = icmp sgt i32 %24, 1
  br i1 %25, label %26, label %28, !prof !9

26:                                               ; preds = %23
  %27 = add nsw i32 %24, -1
  store i32 %27, ptr %4, align 4, !tbaa !4
  br label %lean_dec.exit31

28:                                               ; preds = %23
  %.not.i = icmp eq i32 %24, 0
  br i1 %.not.i, label %lean_dec.exit31, label %29

29:                                               ; preds = %28
  tail call void @lean_dec_ref_cold(ptr noundef nonnull %4) #5
  br label %lean_dec.exit31

lean_dec.exit31:                                  ; preds = %29, %28, %26, %20
  %30 = ptrtoint ptr %3 to i64
  %31 = and i64 %30, 1
  %.not41 = icmp eq i64 %31, 0
  br i1 %.not41, label %32, label %lean_dec.exit30

32:                                               ; preds = %lean_dec.exit31
  %33 = load i32, ptr %3, align 4, !tbaa !4
  %34 = icmp sgt i32 %33, 1
  br i1 %34, label %35, label %37, !prof !9

35:                                               ; preds = %32
  %36 = add nsw i32 %33, -1
  store i32 %36, ptr %3, align 4, !tbaa !4
  br label %lean_dec.exit30

37:                                               ; preds = %32
  %.not.i32 = icmp eq i32 %33, 0
  br i1 %.not.i32, label %lean_dec.exit30, label %38

38:                                               ; preds = %37
  tail call void @lean_dec_ref_cold(ptr noundef nonnull %3) #5
  br label %lean_dec.exit30

lean_dec.exit30:                                  ; preds = %38, %37, %35, %lean_dec.exit31
  %39 = ptrtoint ptr %2 to i64
  %40 = and i64 %39, 1
  %.not42 = icmp eq i64 %40, 0
  br i1 %.not42, label %41, label %lean_dec.exit29

41:                                               ; preds = %lean_dec.exit30
  %42 = load i32, ptr %2, align 4, !tbaa !4
  %43 = icmp sgt i32 %42, 1
  br i1 %43, label %44, label %46, !prof !9

44:                                               ; preds = %41
  %45 = add nsw i32 %42, -1
  store i32 %45, ptr %2, align 4, !tbaa !4
  br label %lean_dec.exit29

46:                                               ; preds = %41
  %.not.i34 = icmp eq i32 %42, 0
  br i1 %.not.i34, label %lean_dec.exit29, label %47

47:                                               ; preds = %46
  tail call void @lean_dec_ref_cold(ptr noundef nonnull %2) #5
  br label %lean_dec.exit29

lean_dec.exit29:                                  ; preds = %47, %46, %44, %lean_dec.exit30
  %48 = ptrtoint ptr %1 to i64
  %49 = and i64 %48, 1
  %.not43 = icmp eq i64 %49, 0
  br i1 %.not43, label %50, label %lean_dec.exit28

50:                                               ; preds = %lean_dec.exit29
  %51 = load i32, ptr %1, align 4, !tbaa !4
  %52 = icmp sgt i32 %51, 1
  br i1 %52, label %53, label %55, !prof !9

53:                                               ; preds = %50
  %54 = add nsw i32 %51, -1
  store i32 %54, ptr %1, align 4, !tbaa !4
  br label %lean_dec.exit28

55:                                               ; preds = %50
  %.not.i36 = icmp eq i32 %51, 0
  br i1 %.not.i36, label %lean_dec.exit28, label %56

56:                                               ; preds = %55
  tail call void @lean_dec_ref_cold(ptr noundef nonnull %1) #5
  br label %lean_dec.exit28

lean_dec.exit28:                                  ; preds = %56, %55, %53, %lean_dec.exit29
  %57 = tail call ptr @l_Lean_Expr_appArg_x21(ptr noundef %0) #5
  %58 = ptrtoint ptr %0 to i64
  %59 = and i64 %58, 1
  %.not44 = icmp eq i64 %59, 0
  br i1 %.not44, label %60, label %lean_dec.exit

60:                                               ; preds = %lean_dec.exit28
  %61 = load i32, ptr %0, align 4, !tbaa !4
  %62 = icmp sgt i32 %61, 1
  br i1 %62, label %63, label %65, !prof !9

63:                                               ; preds = %60
  %64 = add nsw i32 %61, -1
  store i32 %64, ptr %0, align 4, !tbaa !4
  br label %lean_dec.exit

65:                                               ; preds = %60
  %.not.i38 = icmp eq i32 %61, 0
  br i1 %.not.i38, label %lean_dec.exit, label %66

66:                                               ; preds = %65
  tail call void @lean_dec_ref_cold(ptr noundef nonnull %0) #5
  br label %lean_dec.exit

lean_dec.exit:                                    ; preds = %66, %65, %63, %lean_dec.exit28
  tail call void @lean_inc_heartbeat() #5
  %67 = tail call noalias ptr @mi_malloc_small(i64 noundef 24) #5
  %68 = icmp eq ptr %67, null
  br i1 %68, label %69, label %lean_alloc_ctor.exit40

69:                                               ; preds = %lean_dec.exit
  tail call void @lean_internal_panic_out_of_memory() #6
  unreachable

lean_alloc_ctor.exit40:                           ; preds = %lean_dec.exit
  %70 = getelementptr inbounds nuw i8, ptr %67, i64 4
  store i32 1, ptr %67, align 4, !tbaa !4
  store i32 131096, ptr %70, align 4
  %71 = getelementptr inbounds nuw i8, ptr %67, i64 8
  store ptr %57, ptr %71, align 8, !tbaa !10
  %72 = getelementptr inbounds nuw i8, ptr %67, i64 16
  store ptr %5, ptr %72, align 8, !tbaa !10
  br label %73

73:                                               ; preds = %lean_alloc_ctor.exit40, %lean_alloc_ctor.exit
  %.0 = phi ptr [ %19, %lean_alloc_ctor.exit ], [ %67, %lean_alloc_ctor.exit40 ]
  ret ptr %.0
}